target datalayout = "e-m:e-p270:32:32-p271:32:32-p272:64:64-i64:64-i128:128-f80:128-n8:16:32:64-S128"
target triple = "x86_64-pc-linux-gnu"

%struct.Qureg = type { i32, i32, i32, i64, i64, i32, i32, %struct.ComplexArray, %struct.ComplexArray, %struct.ComplexArray, ptr, ptr, ptr, ptr, ptr, ptr }
%struct.ComplexArray = type { ptr, ptr }
%struct.ComplexMatrixN = type { i32, ptr, ptr }

@__func__.applyMultiControlledMatrixN = private unnamed_addr constant [28 x i8] c"applyMultiControlledMatrixN\00", align 1
@.str.28 = private unnamed_addr constant [138 x i8] c"Here, an undisclosed %d-by-%d matrix (possibly non-unitary, and including %d controlled qubits) was multiplied onto %d undisclosed qubits\00", align 1

; Function Attrs: nounwind uwtable
define void @applyMultiControlledMatrixN(ptr noundef byval(%struct.Qureg) align 8 %0, ptr noundef %1, i32 noundef %2, ptr noundef %3, i32 noundef %4, ptr noundef byval(%struct.ComplexMatrixN) align 8 %5) #0 {
  %7 = alloca ptr, align 8
  %8 = alloca i32, align 4
  %9 = alloca ptr, align 8
  %10 = alloca i32, align 4
  %11 = alloca i64, align 8
  %12 = alloca i32, align 4
  %13 = alloca i32, align 4
  store ptr %1, ptr %7, align 8, !tbaa !27
  store i32 %2, ptr %8, align 4, !tbaa !4
  store ptr %3, ptr %9, align 8, !tbaa !27
  store i32 %4, ptr %10, align 4, !tbaa !4
  %14 = load ptr, ptr %7, align 8, !tbaa !27
  %15 = load i32, ptr %8, align 4, !tbaa !4
  %16 = load ptr, ptr %9, align 8, !tbaa !27
  %17 = load i32, ptr %10, align 4, !tbaa !4
  call void @validateMultiControlsMultiTargets(ptr noundef byval(%struct.Qureg) align 8 %0, ptr noundef %14, i32 noundef %15, ptr noundef %16, i32 noundef %17, ptr noundef @__func__.applyMultiControlledMatrixN)
  %18 = load i32, ptr %10, align 4, !tbaa !4
  call void @validateMultiQubitMatrix(ptr noundef byval(%struct.Qureg) align 8 %0, ptr noundef byval(%struct.ComplexMatrixN) align 8 %5, i32 noundef %18, ptr noundef @__func__.applyMultiControlledMatrixN)
  call void @llvm.lifetime.start.p0(i64 8, ptr %11) #7
  %19 = load ptr, ptr %7, align 8, !tbaa !27
  %20 = load i32, ptr %8, align 4, !tbaa !4
  %21 = call i64 @getQubitBitMask(ptr noundef %19, i32 noundef %20)
  store i64 %21, ptr %11, align 8, !tbaa !22
  %22 = load i64, ptr %11, align 8, !tbaa !22
  %23 = load ptr, ptr %9, align 8, !tbaa !27
  %24 = load i32, ptr %10, align 4, !tbaa !4
  call void @statevec_multiControlledMultiQubitUnitary(ptr noundef byval(%struct.Qureg) align 8 %0, i64 noundef %22, ptr noundef %23, i32 noundef %24, ptr noundef byval(%struct.ComplexMatrixN) align 8 %5)
  call void @llvm.lifetime.start.p0(i64 4, ptr %12) #7
  %25 = load i32, ptr %10, align 4, !tbaa !4
  %26 = load i32, ptr %8, align 4, !tbaa !4
  %27 = add nsw i32 %25, %26
  store i32 %27, ptr %12, align 4, !tbaa !4
  call void @llvm.lifetime.start.p0(i64 4, ptr %13) #7
  %28 = load i32, ptr %12, align 4, !tbaa !4
  %29 = shl i32 1, %28
  store i32 %29, ptr %13, align 4, !tbaa !4
  %30 = load i32, ptr %13, align 4, !tbaa !4
  %31 = load i32, ptr %13, align 4, !tbaa !4
  %32 = load i32, ptr %8, align 4, !tbaa !4
  %33 = load i32, ptr %12, align 4, !tbaa !4
  call void (ptr, ptr, ...) @qasm_recordComment(ptr noundef byval(%struct.Qureg) align 8 %0, ptr noundef @.str.28, i32 noundef %30, i32 noundef %31, i32 noundef %32, i32 noundef %33)
  call void @llvm.lifetime.end.p0(i64 4, ptr %13) #7
  call void @llvm.lifetime.end.p0(i64 4, ptr %12) #7
  call void @llvm.lifetime.end.p0(i64 8, ptr %11) #7
  ret void
}