; Function Attrs: nounwind uwtable
define void @applyMultiControlledMatrixN(ptr noundef readonly byval(%struct.Qureg) align 8 captures(none) %0, ptr noundef %1, i32 noundef %2, ptr noundef %3, i32 noundef %4, ptr noundef readonly byval(%struct.ComplexMatrixN) align 8 captures(none) %5) local_unnamed_addr #0 {
  tail call void @validateMultiControlsMultiTargets(ptr noundef nonnull byval(%struct.Qureg) align 8 %0, ptr noundef %1, i32 noundef %2, ptr noundef %3, i32 noundef %4, ptr noundef nonnull @__func__.applyMultiControlledMatrixN) #17
  tail call void @validateMultiQubitMatrix(ptr noundef nonnull byval(%struct.Qureg) align 8 %0, ptr noundef nonnull byval(%struct.ComplexMatrixN) align 8 %5, i32 noundef %4, ptr noundef nonnull @__func__.applyMultiControlledMatrixN) #17
  %7 = tail call i64 @getQubitBitMask(ptr noundef %1, i32 noundef %2) #17
  tail call void @statevec_multiControlledMultiQubitUnitary(ptr noundef nonnull byval(%struct.Qureg) align 8 %0, i64 noundef %7, ptr noundef %3, i32 noundef %4, ptr noundef nonnull byval(%struct.ComplexMatrixN) align 8 %5) #17
  %8 = add nsw i32 %4, %2
  %9 = shl nuw i32 1, %8
  tail call void (ptr, ptr, ...) @qasm_recordComment(ptr noundef nonnull byval(%struct.Qureg) align 8 %0, ptr noundef nonnull @.str.28, i32 noundef %9, i32 noundef %9, i32 noundef %2, i32 noundef %8) #17
  ret void
}